; ModuleID = '32/619.c'
source_filename = "32/619.c"
target datalayout = "e-m:e-p270:32:32-p271:32:32-p272:64:64-i64:64-f80:128-n8:16:32:64-S128"
target triple = "x86_64-pc-linux-gnu"

@.str = private unnamed_addr constant [4 x i8] c"%d\0A\00", align 1

; Function Attrs: noinline nounwind uwtable
define dso_local void @main() #0 {
  %1 = alloca i32, align 4
  %2 = alloca i32, align 4
  %3 = alloca i32, align 4
  %4 = alloca i32, align 4
  %5 = alloca i32, align 4
  %6 = alloca i32, align 4
  %7 = alloca [50 x [100 x i8]], align 16
  %8 = alloca [50 x [100 x i8]], align 16
  %9 = alloca [3 x i8], align 1
  %10 = bitcast [50 x [100 x i8]]* %7 to i8*
  call void @llvm.memset.p0i8.i64(i8* align 16 %10, i8 0, i64 5000, i1 false)
  %11 = bitcast [50 x [100 x i8]]* %8 to i8*
  call void @llvm.memset.p0i8.i64(i8* align 16 %11, i8 0, i64 5000, i1 false)
  %12 = call i32 (i8*, ...) @__isoc99_scanf(i8* getelementptr inbounds ([4 x i8], [4 x i8]* @.str, i64 0, i64 0), i32* %1)
  store i32 0, i32* %2, align 4
  br label %13

13:                                               ; preds = %30, %0
  %14 = load i32, i32* %2, align 4
  %15 = load i32, i32* %1, align 4
  %16 = icmp slt i32 %14, %15
  br i1 %16, label %17, label %33

17:                                               ; preds = %13
  %18 = load i32, i32* %2, align 4
  %19 = sext i32 %18 to i64
  %20 = getelementptr inbounds [50 x [100 x i8]], [50 x [100 x i8]]* %7, i64 0, i64 %19
  %21 = getelementptr inbounds [100 x i8], [100 x i8]* %20, i64 0, i64 0
  %22 = call i32 (i8*, ...) bitcast (i32 (...)* @gets to i32 (i8*, ...)*)(i8* %21)
  %23 = load i32, i32* %2, align 4
  %24 = sext i32 %23 to i64
  %25 = getelementptr inbounds [50 x [100 x i8]], [50 x [100 x i8]]* %8, i64 0, i64 %24
  %26 = getelementptr inbounds [100 x i8], [100 x i8]* %25, i64 0, i64 0
  %27 = call i32 (i8*, ...) bitcast (i32 (...)* @gets to i32 (i8*, ...)*)(i8* %26)
  %28 = getelementptr inbounds [3 x i8], [3 x i8]* %9, i64 0, i64 0
  %29 = call i32 (i8*, ...) bitcast (i32 (...)* @gets to i32 (i8*, ...)*)(i8* %28)
  br label %30

30:                                               ; preds = %17
  %31 = load i32, i32* %2, align 4
  %32 = add nsw i32 %31, 1
  store i32 %32, i32* %2, align 4
  br label %13

33:                                               ; preds = %13
  store i32 0, i32* %2, align 4
  br label %34

34:                                               ; preds = %214, %33
  %35 = load i32, i32* %2, align 4
  %36 = load i32, i32* %1, align 4
  %37 = icmp slt i32 %35, %36
  br i1 %37, label %38, label %217

38:                                               ; preds = %34
  store i32 0, i32* %4, align 4
  store i32 0, i32* %5, align 4
  store i32 0, i32* %3, align 4
  br label %39

39:                                               ; preds = %52, %38
  %40 = load i32, i32* %2, align 4
  %41 = sext i32 %40 to i64
  %42 = getelementptr inbounds [50 x [100 x i8]], [50 x [100 x i8]]* %7, i64 0, i64 %41
  %43 = load i32, i32* %3, align 4
  %44 = sext i32 %43 to i64
  %45 = getelementptr inbounds [100 x i8], [100 x i8]* %42, i64 0, i64 %44
  %46 = load i8, i8* %45, align 1
  %47 = sext i8 %46 to i32
  %48 = icmp ne i32 %47, 0
  br i1 %48, label %49, label %55

49:                                               ; preds = %39
  %50 = load i32, i32* %4, align 4
  %51 = add nsw i32 %50, 1
  store i32 %51, i32* %4, align 4
  br label %52

52:                                               ; preds = %49
  %53 = load i32, i32* %3, align 4
  %54 = add nsw i32 %53, 1
  store i32 %54, i32* %3, align 4
  br label %39

55:                                               ; preds = %39
  store i32 0, i32* %3, align 4
  br label %56

56:                                               ; preds = %69, %55
  %57 = load i32, i32* %2, align 4
  %58 = sext i32 %57 to i64
  %59 = getelementptr inbounds [50 x [100 x i8]], [50 x [100 x i8]]* %8, i64 0, i64 %58
  %60 = load i32, i32* %3, align 4
  %61 = sext i32 %60 to i64
  %62 = getelementptr inbounds [100 x i8], [100 x i8]* %59, i64 0, i64 %61
  %63 = load i8, i8* %62, align 1
  %64 = sext i8 %63 to i32
  %65 = icmp ne i32 %64, 0
  br i1 %65, label %66, label %72

66:                                               ; preds = %56
  %67 = load i32, i32* %5, align 4
  %68 = add nsw i32 %67, 1
  store i32 %68, i32* %5, align 4
  br label %69

69:                                               ; preds = %66
  %70 = load i32, i32* %3, align 4
  %71 = add nsw i32 %70, 1
  store i32 %71, i32* %3, align 4
  br label %56

72:                                               ; preds = %56
  %73 = load i32, i32* %5, align 4
  %74 = sub nsw i32 %73, 1
  store i32 %74, i32* %3, align 4
  br label %75

75:                                               ; preds = %210, %72
  %76 = load i32, i32* %3, align 4
  %77 = icmp sge i32 %76, 0
  br i1 %77, label %78, label %213

78:                                               ; preds = %75
  %79 = load i32, i32* %2, align 4
  %80 = sext i32 %79 to i64
  %81 = getelementptr inbounds [50 x [100 x i8]], [50 x [100 x i8]]* %7, i64 0, i64 %80
  %82 = load i32, i32* %4, align 4
  %83 = load i32, i32* %5, align 4
  %84 = sub nsw i32 %82, %83
  %85 = load i32, i32* %3, align 4
  %86 = add nsw i32 %84, %85
  %87 = sext i32 %86 to i64
  %88 = getelementptr inbounds [100 x i8], [100 x i8]* %81, i64 0, i64 %87
  %89 = load i8, i8* %88, align 1
  %90 = sext i8 %89 to i32
  %91 = load i32, i32* %2, align 4
  %92 = sext i32 %91 to i64
  %93 = getelementptr inbounds [50 x [100 x i8]], [50 x [100 x i8]]* %8, i64 0, i64 %92
  %94 = load i32, i32* %3, align 4
  %95 = sext i32 %94 to i64
  %96 = getelementptr inbounds [100 x i8], [100 x i8]* %93, i64 0, i64 %95
  %97 = load i8, i8* %96, align 1
  %98 = sext i8 %97 to i32
  %99 = icmp slt i32 %90, %98
  br i1 %99, label %100, label %175

100:                                              ; preds = %78
  %101 = load i32, i32* %2, align 4
  %102 = sext i32 %101 to i64
  %103 = getelementptr inbounds [50 x [100 x i8]], [50 x [100 x i8]]* %7, i64 0, i64 %102
  %104 = load i32, i32* %4, align 4
  %105 = load i32, i32* %5, align 4
  %106 = sub nsw i32 %104, %105
  %107 = load i32, i32* %3, align 4
  %108 = add nsw i32 %106, %107
  %109 = sext i32 %108 to i64
  %110 = getelementptr inbounds [100 x i8], [100 x i8]* %103, i64 0, i64 %109
  %111 = load i8, i8* %110, align 1
  %112 = sext i8 %111 to i32
  %113 = add nsw i32 %112, 10
  %114 = load i32, i32* %2, align 4
  %115 = sext i32 %114 to i64
  %116 = getelementptr inbounds [50 x [100 x i8]], [50 x [100 x i8]]* %8, i64 0, i64 %115
  %117 = load i32, i32* %3, align 4
  %118 = sext i32 %117 to i64
  %119 = getelementptr inbounds [100 x i8], [100 x i8]* %116, i64 0, i64 %118
  %120 = load i8, i8* %119, align 1
  %121 = sext i8 %120 to i32
  %122 = sub nsw i32 %113, %121
  %123 = add nsw i32 %122, 48
  %124 = trunc i32 %123 to i8
  %125 = load i32, i32* %2, align 4
  %126 = sext i32 %125 to i64
  %127 = getelementptr inbounds [50 x [100 x i8]], [50 x [100 x i8]]* %7, i64 0, i64 %126
  %128 = load i32, i32* %4, align 4
  %129 = load i32, i32* %5, align 4
  %130 = sub nsw i32 %128, %129
  %131 = load i32, i32* %3, align 4
  %132 = add nsw i32 %130, %131
  %133 = sext i32 %132 to i64
  %134 = getelementptr inbounds [100 x i8], [100 x i8]* %127, i64 0, i64 %133
  store i8 %124, i8* %134, align 1
  %135 = load i32, i32* %4, align 4
  %136 = load i32, i32* %5, align 4
  %137 = sub nsw i32 %135, %136
  %138 = load i32, i32* %3, align 4
  %139 = add nsw i32 %137, %138
  %140 = sub nsw i32 %139, 1
  store i32 %140, i32* %6, align 4
  br label %141

141:                                              ; preds = %171, %100
  %142 = load i32, i32* %6, align 4
  %143 = icmp sge i32 %142, 0
  br i1 %143, label %144, label %174

144:                                              ; preds = %141
  %145 = load i32, i32* %2, align 4
  %146 = sext i32 %145 to i64
  %147 = getelementptr inbounds [50 x [100 x i8]], [50 x [100 x i8]]* %7, i64 0, i64 %146
  %148 = load i32, i32* %6, align 4
  %149 = sext i32 %148 to i64
  %150 = getelementptr inbounds [100 x i8], [100 x i8]* %147, i64 0, i64 %149
  %151 = load i8, i8* %150, align 1
  %152 = sext i8 %151 to i32
  %153 = icmp sgt i32 %152, 48
  br i1 %153, label %154, label %163

154:                                              ; preds = %144
  %155 = load i32, i32* %2, align 4
  %156 = sext i32 %155 to i64
  %157 = getelementptr inbounds [50 x [100 x i8]], [50 x [100 x i8]]* %7, i64 0, i64 %156
  %158 = load i32, i32* %6, align 4
  %159 = sext i32 %158 to i64
  %160 = getelementptr inbounds [100 x i8], [100 x i8]* %157, i64 0, i64 %159
  %161 = load i8, i8* %160, align 1
  %162 = add i8 %161, -1
  store i8 %162, i8* %160, align 1
  br label %174

163:                                              ; preds = %144
  %164 = load i32, i32* %2, align 4
  %165 = sext i32 %164 to i64
  %166 = getelementptr inbounds [50 x [100 x i8]], [50 x [100 x i8]]* %7, i64 0, i64 %165
  %167 = load i32, i32* %6, align 4
  %168 = sext i32 %167 to i64
  %169 = getelementptr inbounds [100 x i8], [100 x i8]* %166, i64 0, i64 %168
  store i8 57, i8* %169, align 1
  br label %170

170:                                              ; preds = %163
  br label %171

171:                                              ; preds = %170
  %172 = load i32, i32* %6, align 4
  %173 = add nsw i32 %172, -1
  store i32 %173, i32* %6, align 4
  br label %141

174:                                              ; preds = %154, %141
  br label %209

175:                                              ; preds = %78
  %176 = load i32, i32* %2, align 4
  %177 = sext i32 %176 to i64
  %178 = getelementptr inbounds [50 x [100 x i8]], [50 x [100 x i8]]* %7, i64 0, i64 %177
  %179 = load i32, i32* %4, align 4
  %180 = load i32, i32* %5, align 4
  %181 = sub nsw i32 %179, %180
  %182 = load i32, i32* %3, align 4
  %183 = add nsw i32 %181, %182
  %184 = sext i32 %183 to i64
  %185 = getelementptr inbounds [100 x i8], [100 x i8]* %178, i64 0, i64 %184
  %186 = load i8, i8* %185, align 1
  %187 = sext i8 %186 to i32
  %188 = load i32, i32* %2, align 4
  %189 = sext i32 %188 to i64
  %190 = getelementptr inbounds [50 x [100 x i8]], [50 x [100 x i8]]* %8, i64 0, i64 %189
  %191 = load i32, i32* %3, align 4
  %192 = sext i32 %191 to i64
  %193 = getelementptr inbounds [100 x i8], [100 x i8]* %190, i64 0, i64 %192
  %194 = load i8, i8* %193, align 1
  %195 = sext i8 %194 to i32
  %196 = sub nsw i32 %187, %195
  %197 = add nsw i32 %196, 48
  %198 = trunc i32 %197 to i8
  %199 = load i32, i32* %2, align 4
  %200 = sext i32 %199 to i64
  %201 = getelementptr inbounds [50 x [100 x i8]], [50 x [100 x i8]]* %7, i64 0, i64 %200
  %202 = load i32, i32* %4, align 4
  %203 = load i32, i32* %5, align 4
  %204 = sub nsw i32 %202, %203
  %205 = load i32, i32* %3, align 4
  %206 = add nsw i32 %204, %205
  %207 = sext i32 %206 to i64
  %208 = getelementptr inbounds [100 x i8], [100 x i8]* %201, i64 0, i64 %207
  store i8 %198, i8* %208, align 1
  br label %209

209:                                              ; preds = %175, %174
  br label %210

210:                                              ; preds = %209
  %211 = load i32, i32* %3, align 4
  %212 = add nsw i32 %211, -1
  store i32 %212, i32* %3, align 4
  br label %75

213:                                              ; preds = %75
  br label %214

214:                                              ; preds = %213
  %215 = load i32, i32* %2, align 4
  %216 = add nsw i32 %215, 1
  store i32 %216, i32* %2, align 4
  br label %34

217:                                              ; preds = %34
  store i32 0, i32* %2, align 4
  br label %218

218:                                              ; preds = %228, %217
  %219 = load i32, i32* %2, align 4
  %220 = load i32, i32* %1, align 4
  %221 = icmp slt i32 %219, %220
  br i1 %221, label %222, label %231

222:                                              ; preds = %218
  %223 = load i32, i32* %2, align 4
  %224 = sext i32 %223 to i64
  %225 = getelementptr inbounds [50 x [100 x i8]], [50 x [100 x i8]]* %7, i64 0, i64 %224
  %226 = getelementptr inbounds [100 x i8], [100 x i8]* %225, i64 0, i64 0
  %227 = call i32 @puts(i8* %226)
  br label %228

228:                                              ; preds = %222
  %229 = load i32, i32* %2, align 4
  %230 = add nsw i32 %229, 1
  store i32 %230, i32* %2, align 4
  br label %218

231:                                              ; preds = %218
  ret void
}

; Function Attrs: argmemonly nounwind willreturn
declare void @llvm.memset.p0i8.i64(i8* nocapture writeonly, i8, i64, i1 immarg) #1

declare dso_local i32 @__isoc99_scanf(i8*, ...) #2

declare dso_local i32 @gets(...) #2

declare dso_local i32 @puts(i8*) #2


!llvm.module.flags = !{!0}
!llvm.ident = !{!1}

!0 = !{i32 1, !"wchar_size", i32 4}
!1 = !{!"clang version 10.0.0-4ubuntu1 "}
